target datalayout = "e-m:e-p270:32:32-p271:32:32-p272:64:64-i64:64-i128:128-f80:128-n8:16:32:64-S128"
target triple = "x86_64-pc-linux-gnu"

; Function Attrs: mustprogress uwtable
define internal noundef i32 @_ZL12check_pollerPv(ptr noundef %0) #1 {
  %2 = alloca i32, align 4
  %3 = alloca ptr, align 8
  store ptr %0, ptr %3, align 8, !tbaa !12
  %4 = load ptr, ptr %3, align 8, !tbaa !12
  %5 = icmp ne ptr %4, null
  br i1 %5, label %6, label %9

6:                                                ; preds = %1
  %7 = load ptr, ptr %3, align 8, !tbaa !12
  %8 = call noundef zeroext i1 @_ZNK3zmq15socket_poller_t9check_tagEv(ptr noundef nonnull align 8 dereferenceable(56) %7)
  br i1 %8, label %11, label %9

9:                                                ; preds = %6, %1
  %10 = call ptr @__errno_location() #19
  store i32 14, ptr %10, align 4, !tbaa !8
  store i32 -1, ptr %2, align 4
  br label %12

11:                                               ; preds = %6
  store i32 0, ptr %2, align 4
  br label %12

12:                                               ; preds = %11, %9
  %13 = load i32, ptr %2, align 4
  ret i32 %13
}

; Function Attrs: mustprogress uwtable
define internal noundef i32 @_ZL33check_poller_fd_registration_argsPvi(ptr noundef %0, i32 noundef %1) #1 {
  %3 = alloca i32, align 4
  %4 = alloca ptr, align 8
  %5 = alloca i32, align 4
  store ptr %0, ptr %4, align 8, !tbaa !12
  store i32 %1, ptr %5, align 4, !tbaa !8
  %6 = load ptr, ptr %4, align 8, !tbaa !12
  %7 = call noundef i32 @_ZL12check_pollerPv(ptr noundef %6)
  %8 = icmp eq i32 -1, %7
  br i1 %8, label %9, label %10

9:                                                ; preds = %2
  store i32 -1, ptr %3, align 4
  br label %16

10:                                               ; preds = %2
  %11 = load i32, ptr %5, align 4, !tbaa !8
  %12 = icmp eq i32 %11, -1
  br i1 %12, label %13, label %15

13:                                               ; preds = %10
  %14 = call ptr @__errno_location() #19
  store i32 9, ptr %14, align 4, !tbaa !8
  store i32 -1, ptr %3, align 4
  br label %16

15:                                               ; preds = %10
  store i32 0, ptr %3, align 4
  br label %16

16:                                               ; preds = %15, %13, %9
  %17 = load i32, ptr %3, align 4
  ret i32 %17
}

; Function Attrs: mustprogress uwtable
define i32 @zmq_poller_remove_fd(ptr noundef %0, i32 noundef %1) #1 {
  %3 = alloca i32, align 4
  %4 = alloca ptr, align 8
  %5 = alloca i32, align 4
  store ptr %0, ptr %4, align 8, !tbaa !12
  store i32 %1, ptr %5, align 4, !tbaa !8
  %6 = load ptr, ptr %4, align 8, !tbaa !12
  %7 = load i32, ptr %5, align 4, !tbaa !8
  %8 = call noundef i32 @_ZL33check_poller_fd_registration_argsPvi(ptr noundef %6, i32 noundef %7)
  %9 = icmp eq i32 -1, %8
  br i1 %9, label %10, label %11

10:                                               ; preds = %2
  store i32 -1, ptr %3, align 4
  br label %15

11:                                               ; preds = %2
  %12 = load ptr, ptr %4, align 8, !tbaa !12
  %13 = load i32, ptr %5, align 4, !tbaa !8
  %14 = call noundef i32 @_ZN3zmq15socket_poller_t9remove_fdEi(ptr noundef nonnull align 8 dereferenceable(56) %12, i32 noundef %13)
  store i32 %14, ptr %3, align 4
  br label %15

15:                                               ; preds = %11, %10
  %16 = load i32, ptr %3, align 4
  ret i32 %16
}