; Function Attrs: mustprogress uwtable
define noundef i32 @zmq_poller_remove_fd(ptr noundef %0, i32 noundef %1) local_unnamed_addr #1 {
  %.not.i.i = icmp eq ptr %0, null
  br i1 %.not.i.i, label %_ZL33check_poller_fd_registration_argsPvi.exit.thread, label %3

3:                                                ; preds = %2
  %4 = tail call noundef zeroext i1 @_ZNK3zmq15socket_poller_t9check_tagEv(ptr noundef nonnull align 8 dereferenceable(56) %0)
  br i1 %4, label %_ZL12check_pollerPv.exit.i, label %_ZL33check_poller_fd_registration_argsPvi.exit.thread

_ZL12check_pollerPv.exit.i:                       ; preds = %3
  %5 = icmp eq i32 %1, -1
  br i1 %5, label %_ZL33check_poller_fd_registration_argsPvi.exit.thread, label %_ZL33check_poller_fd_registration_argsPvi.exit

_ZL33check_poller_fd_registration_argsPvi.exit.thread: ; preds = %2, %3, %_ZL12check_pollerPv.exit.i
  %.sink.i = phi i32 [ 14, %2 ], [ 14, %3 ], [ 9, %_ZL12check_pollerPv.exit.i ]
  %6 = tail call ptr @__errno_location() #20
  store i32 %.sink.i, ptr %6, align 4, !tbaa !3
  br label %8

_ZL33check_poller_fd_registration_argsPvi.exit:   ; preds = %_ZL12check_pollerPv.exit.i
  %7 = tail call noundef i32 @_ZN3zmq15socket_poller_t9remove_fdEi(ptr noundef nonnull align 8 dereferenceable(56) %0, i32 noundef %1)
  br label %8

8:                                                ; preds = %_ZL33check_poller_fd_registration_argsPvi.exit.thread, %_ZL33check_poller_fd_registration_argsPvi.exit
  %.0 = phi i32 [ %7, %_ZL33check_poller_fd_registration_argsPvi.exit ], [ -1, %_ZL33check_poller_fd_registration_argsPvi.exit.thread ]
  ret i32 %.0
}